target datalayout = "e-m:e-p270:32:32-p271:32:32-p272:64:64-i64:64-i128:128-f80:128-n8:16:32:64-S128"
target triple = "x86_64-pc-linux-gnu"

%"class.spacer::dl_interface" = type { %"class.datalog::engine_base", ptr, %"class.datalog::rule_set", %"class.datalog::rule_set", ptr, %class.obj_map.15, %class.ref_vector.25 }
%"class.datalog::engine_base" = type { ptr, ptr, %"class.std::__cxx11::basic_string" }
%"class.std::__cxx11::basic_string" = type { %"struct.std::__cxx11::basic_string<char>::_Alloc_hider", i64, %union.anon }
%"struct.std::__cxx11::basic_string<char>::_Alloc_hider" = type { ptr }
%union.anon = type { i64, [8 x i8] }
%"class.datalog::rule_set" = type { ptr, ptr, %class.ref_vector, %class.obj_map, %"class.datalog::rule_dependencies", %class.scoped_ptr, %class.obj_hashtable.9, %class.obj_map.15, %class.obj_map.15, %class.ref_vector.20, %class.ptr_vector }
%class.ref_vector = type { %class.ref_vector_core }
%class.ref_vector_core = type { %class.ref_manager_wrapper, %class.ptr_vector }
%class.ref_manager_wrapper = type { ptr }
%class.obj_map = type { %class.core_hashtable }
%class.core_hashtable = type <{ ptr, i32, i32, i32, [4 x i8] }>
%"class.datalog::rule_dependencies" = type { %class.obj_map.0, ptr, %class.ptr_vector.5, %class.expr_sparse_mark, %class.obj_hashtable.9 }
%class.obj_map.0 = type { %class.core_hashtable.1 }
%class.core_hashtable.1 = type <{ ptr, i32, i32, i32, [4 x i8] }>
%class.ptr_vector.5 = type { %class.vector.6 }
%class.vector.6 = type { ptr }
%class.expr_sparse_mark = type { %class.obj_hashtable }
%class.obj_hashtable = type { %class.core_hashtable.base.8, [4 x i8] }
%class.core_hashtable.base.8 = type <{ ptr, i32, i32, i32 }>
%class.scoped_ptr = type { ptr }
%class.obj_hashtable.9 = type { %class.core_hashtable.base.13, [4 x i8] }
%class.core_hashtable.base.13 = type <{ ptr, i32, i32, i32 }>
%class.ref_vector.20 = type { %class.ref_vector_core.21 }
%class.ref_vector_core.21 = type { %class.ref_manager_wrapper.22, %class.ptr_vector.23 }
%class.ref_manager_wrapper.22 = type { ptr }
%class.ptr_vector.23 = type { %class.vector.24 }
%class.vector.24 = type { ptr }
%class.ptr_vector = type { %class.vector }
%class.vector = type { ptr }
%class.obj_map.15 = type { %class.core_hashtable.16 }
%class.core_hashtable.16 = type <{ ptr, i32, i32, i32, [4 x i8] }>
%class.ref_vector.25 = type { %class.ref_vector_core.26 }
%class.ref_vector_core.26 = type { %class.ref_manager_wrapper.27, %class.ptr_vector.28 }
%class.ref_manager_wrapper.27 = type { ptr }
%class.ptr_vector.28 = type { %class.vector.29 }
%class.vector.29 = type { ptr }
%class.ref = type { ptr }
%class.ref.102 = type { ptr }
%class.obj_ref.149 = type { ptr, ptr }
%"class.spacer::context" = type { %class.stopwatch, %class.stopwatch, %class.stopwatch, %class.stopwatch, %class.stopwatch, %class.stopwatch, ptr, ptr, ptr, %"class.spacer::manager", %class.scoped_ptr.143, %class.scoped_ptr.143, %class.scoped_ptr.143, %class.random_gen, i32, %class.obj_map.144, %class.obj_ref.149, ptr, %"class.spacer::pob_queue", i32, i32, i32, %class.ptr_buffer.154, ptr, ptr, ptr, %"struct.spacer::context::stats", %class.ref, %class.ref.102, i8, i8, i8, i8, i8, i8, i8, i8, i8, i8, i8, i8, i8, i8, i8, i8, i8, i8, i8, i8, i8, i8, i8, i8, i8, i8, i8, i8, i8, i8, i8, i8, i8, i8, i8, i32, i32, i32, i32, %class.scoped_ptr_vector, ptr }
%class.stopwatch = type <{ %"class.std::chrono::time_point", %"class.std::chrono::duration", i8, [7 x i8] }>
%"class.std::chrono::time_point" = type { %"class.std::chrono::duration" }
%"class.std::chrono::duration" = type { i64 }
%"class.spacer::manager" = type { ptr, %"class.spacer::sym_mux" }
%"class.spacer::sym_mux" = type { ptr, %class.obj_map.133, %class.obj_map.138 }
%class.obj_map.133 = type { %class.core_hashtable.134 }
%class.core_hashtable.134 = type <{ ptr, i32, i32, i32, [4 x i8] }>
%class.obj_map.138 = type { %class.core_hashtable.139 }
%class.core_hashtable.139 = type <{ ptr, i32, i32, i32, [4 x i8] }>
%class.scoped_ptr.143 = type { ptr }
%class.random_gen = type { i32 }
%class.obj_map.144 = type { %class.core_hashtable.145 }
%class.core_hashtable.145 = type <{ ptr, i32, i32, i32, [4 x i8] }>
%"class.spacer::pob_queue" = type { %class.ref.150, i32, i32, %"class.std::priority_queue" }
%class.ref.150 = type { ptr }
%"class.std::priority_queue" = type <{ %"class.std::vector", [8 x i8] }>
%"class.std::vector" = type { %"struct.std::_Vector_base" }
%"struct.std::_Vector_base" = type { %"struct.std::_Vector_base<spacer::pob *, std::allocator<spacer::pob *>>::_Vector_impl" }
%"struct.std::_Vector_base<spacer::pob *, std::allocator<spacer::pob *>>::_Vector_impl" = type { %"struct.std::_Vector_base<spacer::pob *, std::allocator<spacer::pob *>>::_Vector_impl_data" }
%"struct.std::_Vector_base<spacer::pob *, std::allocator<spacer::pob *>>::_Vector_impl_data" = type { ptr, ptr, ptr }
%class.ptr_buffer.154 = type { %class.buffer.155 }
%class.buffer.155 = type { ptr, i32, i32, [128 x i8] }
%"struct.spacer::context::stats" = type { i32, i32, i32, i32, i32, i32, i32, i32, i32, i32, i32, i32, i32, i32, i32, i32, i32, i32, i32 }
%class.scoped_ptr_vector = type { %class.ptr_vector.156 }
%class.ptr_vector.156 = type { %class.vector.157 }
%class.vector.157 = type { ptr }
%"class.spacer::user_callback" = type { %"class.spacer::spacer_callback", ptr, ptr, ptr, ptr }
%"class.spacer::spacer_callback" = type { ptr, ptr }

@_ZTVN6spacer13user_callbackE = external unnamed_addr constant { [12 x ptr] }, align 8

; Function Attrs: mustprogress uwtable
define linkonce_odr hidden noundef nonnull align 8 dereferenceable(8) ptr @_ZN6vectorIPN6spacer15spacer_callbackELb0EjE9push_backERKS2_(ptr noundef nonnull align 8 dereferenceable(8) %0, ptr noundef nonnull align 8 dereferenceable(8) %1) #4 comdat align 2 {
  %3 = alloca ptr, align 8
  %4 = alloca ptr, align 8
  store ptr %0, ptr %3, align 8, !tbaa !558
  store ptr %1, ptr %4, align 8, !tbaa !560
  %5 = load ptr, ptr %3, align 8
  %6 = getelementptr inbounds nuw %class.vector.157, ptr %5, i32 0, i32 0
  %7 = load ptr, ptr %6, align 8, !tbaa !561
  %8 = icmp eq ptr %7, null
  br i1 %8, label %19, label %9

9:                                                ; preds = %2
  %10 = getelementptr inbounds nuw %class.vector.157, ptr %5, i32 0, i32 0
  %11 = load ptr, ptr %10, align 8, !tbaa !561
  %12 = getelementptr inbounds i32, ptr %11, i64 -1
  %13 = load i32, ptr %12, align 4, !tbaa !233
  %14 = getelementptr inbounds nuw %class.vector.157, ptr %5, i32 0, i32 0
  %15 = load ptr, ptr %14, align 8, !tbaa !561
  %16 = getelementptr inbounds i32, ptr %15, i64 -2
  %17 = load i32, ptr %16, align 4, !tbaa !233
  %18 = icmp eq i32 %13, %17
  br i1 %18, label %19, label %20

19:                                               ; preds = %9, %2
  call void @_ZN6vectorIPN6spacer15spacer_callbackELb0EjE13expand_vectorEv(ptr noundef nonnull align 8 dereferenceable(8) %5)
  br label %20

20:                                               ; preds = %19, %9
  %21 = getelementptr inbounds nuw %class.vector.157, ptr %5, i32 0, i32 0
  %22 = load ptr, ptr %21, align 8, !tbaa !561
  %23 = getelementptr inbounds nuw %class.vector.157, ptr %5, i32 0, i32 0
  %24 = load ptr, ptr %23, align 8, !tbaa !561
  %25 = getelementptr inbounds i32, ptr %24, i64 -1
  %26 = load i32, ptr %25, align 4, !tbaa !233
  %27 = zext i32 %26 to i64
  %28 = getelementptr inbounds nuw ptr, ptr %22, i64 %27
  %29 = load ptr, ptr %4, align 8, !tbaa !560
  %30 = load ptr, ptr %29, align 8, !tbaa !349
  store ptr %30, ptr %28, align 8, !tbaa !349
  %31 = getelementptr inbounds nuw %class.vector.157, ptr %5, i32 0, i32 0
  %32 = load ptr, ptr %31, align 8, !tbaa !561
  %33 = getelementptr inbounds i32, ptr %32, i64 -1
  %34 = load i32, ptr %33, align 4, !tbaa !233
  %35 = add i32 %34, 1
  store i32 %35, ptr %33, align 4, !tbaa !233
  ret ptr %5
}

; Function Attrs: mustprogress nounwind uwtable
define linkonce_odr hidden void @_ZN6spacer15spacer_callbackC2ERNS_7contextE(ptr noundef nonnull align 8 dereferenceable(16) %0, ptr noundef nonnull align 8 dereferenceable(712) %1) unnamed_addr #5 comdat align 2 {
  %3 = alloca ptr, align 8
  %4 = alloca ptr, align 8
  store ptr %0, ptr %3, align 8, !tbaa !349
  store ptr %1, ptr %4, align 8, !tbaa !226
  %5 = load ptr, ptr %3, align 8
  store ptr getelementptr inbounds inrange(-16, 80) ({ [12 x ptr] }, ptr @_ZTVN6spacer15spacer_callbackE, i32 0, i32 0, i32 2), ptr %5, align 8, !tbaa !10
  %6 = getelementptr inbounds nuw %"class.spacer::spacer_callback", ptr %5, i32 0, i32 1
  %7 = load ptr, ptr %4, align 8, !tbaa !226
  store ptr %7, ptr %6, align 8, !tbaa !226
  ret void
}

; Function Attrs: mustprogress uwtable
define linkonce_odr hidden void @_ZN17scoped_ptr_vectorIN6spacer15spacer_callbackEE9push_backEPS1_(ptr noundef nonnull align 8 dereferenceable(8) %0, ptr noundef %1) #4 comdat align 2 {
  %3 = alloca ptr, align 8
  %4 = alloca ptr, align 8
  store ptr %0, ptr %3, align 8, !tbaa !347
  store ptr %1, ptr %4, align 8, !tbaa !349
  %5 = load ptr, ptr %3, align 8
  %6 = getelementptr inbounds nuw %class.scoped_ptr_vector, ptr %5, i32 0, i32 0
  %7 = call noundef nonnull align 8 dereferenceable(8) ptr @_ZN6vectorIPN6spacer15spacer_callbackELb0EjE9push_backERKS2_(ptr noundef nonnull align 8 dereferenceable(8) %6, ptr noundef nonnull align 8 dereferenceable(8) %4)
  ret void
}

; Function Attrs: mustprogress uwtable
define linkonce_odr hidden void @_ZN6spacer13user_callbackC2ERNS_7contextEPvPFvS3_P4exprjEPFvS3_ES9_(ptr noundef nonnull align 8 dereferenceable(48) %0, ptr noundef nonnull align 8 dereferenceable(712) %1, ptr noundef %2, ptr noundef %3, ptr noundef %4, ptr noundef %5) unnamed_addr #4 comdat align 2 {
  %7 = alloca ptr, align 8
  %8 = alloca ptr, align 8
  %9 = alloca ptr, align 8
  %10 = alloca ptr, align 8
  %11 = alloca ptr, align 8
  %12 = alloca ptr, align 8
  store ptr %0, ptr %7, align 8, !tbaa !351
  store ptr %1, ptr %8, align 8, !tbaa !226
  store ptr %2, ptr %9, align 8, !tbaa !346
  store ptr %3, ptr %10, align 8, !tbaa !346
  store ptr %4, ptr %11, align 8, !tbaa !346
  store ptr %5, ptr %12, align 8, !tbaa !346
  %13 = load ptr, ptr %7, align 8
  %14 = load ptr, ptr %8, align 8, !tbaa !226
  call void @_ZN6spacer15spacer_callbackC2ERNS_7contextE(ptr noundef nonnull align 8 dereferenceable(16) %13, ptr noundef nonnull align 8 dereferenceable(712) %14)
  store ptr getelementptr inbounds inrange(-16, 80) ({ [12 x ptr] }, ptr @_ZTVN6spacer13user_callbackE, i32 0, i32 0, i32 2), ptr %13, align 8, !tbaa !10
  %15 = getelementptr inbounds nuw %"class.spacer::user_callback", ptr %13, i32 0, i32 1
  %16 = load ptr, ptr %9, align 8, !tbaa !346
  store ptr %16, ptr %15, align 8, !tbaa !353
  %17 = getelementptr inbounds nuw %"class.spacer::user_callback", ptr %13, i32 0, i32 2
  %18 = load ptr, ptr %10, align 8, !tbaa !346
  store ptr %18, ptr %17, align 8, !tbaa !356
  %19 = getelementptr inbounds nuw %"class.spacer::user_callback", ptr %13, i32 0, i32 3
  %20 = load ptr, ptr %11, align 8, !tbaa !346
  store ptr %20, ptr %19, align 8, !tbaa !357
  %21 = getelementptr inbounds nuw %"class.spacer::user_callback", ptr %13, i32 0, i32 4
  %22 = load ptr, ptr %12, align 8, !tbaa !346
  store ptr %22, ptr %21, align 8, !tbaa !358
  ret void
}

; Function Attrs: mustprogress nounwind uwtable
define linkonce_odr hidden noundef nonnull align 8 dereferenceable(8) ptr @_ZN6spacer7context9callbacksEv(ptr noundef nonnull align 8 dereferenceable(712) %0) #5 comdat align 2 {
  %2 = alloca ptr, align 8
  store ptr %0, ptr %2, align 8, !tbaa !226
  %3 = load ptr, ptr %2, align 8
  %4 = getelementptr inbounds nuw %"class.spacer::context", ptr %3, i32 0, i32 68
  ret ptr %4
}

; Function Attrs: mustprogress uwtable
define hidden void @_ZN6spacer12dl_interface12add_callbackEPvPFvS1_P4exprjEPFvS1_ES7_(ptr noundef nonnull align 8 dereferenceable(600) %0, ptr noundef %1, ptr noundef %2, ptr noundef %3, ptr noundef %4) unnamed_addr #4 align 2 {
  %6 = alloca ptr, align 8
  %7 = alloca ptr, align 8
  %8 = alloca ptr, align 8
  %9 = alloca ptr, align 8
  %10 = alloca ptr, align 8
  store ptr %0, ptr %6, align 8, !tbaa !3
  store ptr %1, ptr %7, align 8, !tbaa !346
  store ptr %2, ptr %8, align 8, !tbaa !346
  store ptr %3, ptr %9, align 8, !tbaa !346
  store ptr %4, ptr %10, align 8, !tbaa !346
  %11 = load ptr, ptr %6, align 8
  %12 = getelementptr inbounds nuw %"class.spacer::dl_interface", ptr %11, i32 0, i32 4
  %13 = load ptr, ptr %12, align 8, !tbaa !12
  %14 = call noundef nonnull align 8 dereferenceable(8) ptr @_ZN6spacer7context9callbacksEv(ptr noundef nonnull align 8 dereferenceable(712) %13)
  %15 = call noalias noundef ptr @_ZN6memory8allocateEm(i64 noundef 48)
  %16 = getelementptr inbounds nuw %"class.spacer::dl_interface", ptr %11, i32 0, i32 4
  %17 = load ptr, ptr %16, align 8, !tbaa !12
  %18 = load ptr, ptr %7, align 8, !tbaa !346
  %19 = load ptr, ptr %8, align 8, !tbaa !346
  %20 = load ptr, ptr %9, align 8, !tbaa !346
  %21 = load ptr, ptr %10, align 8, !tbaa !346
  call void @_ZN6spacer13user_callbackC2ERNS_7contextEPvPFvS3_P4exprjEPFvS3_ES9_(ptr noundef nonnull align 8 dereferenceable(48) %15, ptr noundef nonnull align 8 dereferenceable(712) %17, ptr noundef %18, ptr noundef %19, ptr noundef %20, ptr noundef %21)
  call void @_ZN17scoped_ptr_vectorIN6spacer15spacer_callbackEE9push_backEPS1_(ptr noundef nonnull align 8 dereferenceable(8) %14, ptr noundef %15)
  ret void
}