; Function Attrs: mustprogress uwtable
define hidden void @_ZN6spacer12dl_interface12add_callbackEPvPFvS1_P4exprjEPFvS1_ES7_(ptr noundef nonnull readonly align 8 captures(none) dereferenceable(600) %0, ptr noundef %1, ptr noundef %2, ptr noundef %3, ptr noundef %4) unnamed_addr #3 align 2 {
  %6 = getelementptr inbounds nuw i8, ptr %0, i64 552
  %7 = load ptr, ptr %6, align 8, !tbaa !214
  %8 = getelementptr inbounds nuw i8, ptr %7, i64 696
  %9 = tail call noalias noundef ptr @_ZN6memory8allocateEm(i64 noundef 48)
  %10 = load ptr, ptr %6, align 8, !tbaa !214
  %11 = getelementptr inbounds nuw i8, ptr %9, i64 8
  store ptr %10, ptr %11, align 8, !tbaa !376
  store ptr getelementptr inbounds nuw inrange(-16, 80) (i8, ptr @_ZTVN6spacer13user_callbackE, i64 16), ptr %9, align 8, !tbaa !211
  %12 = getelementptr inbounds nuw i8, ptr %9, i64 16
  store ptr %1, ptr %12, align 8, !tbaa !377
  %13 = getelementptr inbounds nuw i8, ptr %9, i64 24
  store ptr %2, ptr %13, align 8, !tbaa !380
  %14 = getelementptr inbounds nuw i8, ptr %9, i64 32
  store ptr %3, ptr %14, align 8, !tbaa !381
  %15 = getelementptr inbounds nuw i8, ptr %9, i64 40
  store ptr %4, ptr %15, align 8, !tbaa !382
  %16 = load ptr, ptr %8, align 8, !tbaa !383
  %17 = icmp eq ptr %16, null
  br i1 %17, label %24, label %18

18:                                               ; preds = %5
  %19 = getelementptr inbounds i8, ptr %16, i64 -4
  %20 = load i32, ptr %19, align 4, !tbaa !225
  %21 = getelementptr inbounds i8, ptr %16, i64 -8
  %22 = load i32, ptr %21, align 4, !tbaa !225
  %23 = icmp eq i32 %20, %22
  br i1 %23, label %24, label %_ZN17scoped_ptr_vectorIN6spacer15spacer_callbackEE9push_backEPS1_.exit

24:                                               ; preds = %18, %5
  tail call void @_ZN6vectorIPN6spacer15spacer_callbackELb0EjE13expand_vectorEv(ptr noundef nonnull align 8 dereferenceable(8) %8)
  %.pre.i.i = load ptr, ptr %8, align 8, !tbaa !383
  %.phi.trans.insert.i.i = getelementptr inbounds i8, ptr %.pre.i.i, i64 -4
  %.pre2.i.i = load i32, ptr %.phi.trans.insert.i.i, align 4, !tbaa !225
  br label %_ZN17scoped_ptr_vectorIN6spacer15spacer_callbackEE9push_backEPS1_.exit

_ZN17scoped_ptr_vectorIN6spacer15spacer_callbackEE9push_backEPS1_.exit: ; preds = %18, %24
  %25 = phi i32 [ %.pre2.i.i, %24 ], [ %20, %18 ]
  %26 = phi ptr [ %.pre.i.i, %24 ], [ %16, %18 ]
  %27 = getelementptr inbounds i8, ptr %26, i64 -4
  %28 = zext i32 %25 to i64
  %29 = getelementptr inbounds nuw ptr, ptr %26, i64 %28
  store ptr %9, ptr %29, align 8, !tbaa !384
  %30 = add i32 %25, 1
  store i32 %30, ptr %27, align 4, !tbaa !225
  ret void
}